; Function Attrs: mustprogress uwtable
define internal fastcc void @_ZN4ofbxL19resolveVec3PropertyERKNS_6ObjectEPKcRKNS_4Vec3E(ptr dead_on_unwind noalias nocapture writable writeonly align 8 %0, ptr readonly %.144.val.32.val, ptr nocapture noundef readonly %1, ptr nocapture noundef nonnull readonly align 8 dereferenceable(24) %2) unnamed_addr #8 {
  %.not10.i.i = icmp eq ptr %.144.val.32.val, null
  br i1 %.not10.i.i, label %.loopexit, label %.lr.ph.split.i.i

.lr.ph.split.i.i:                                 ; preds = %3, %_ZNK4ofbx8DataVieweqEPKc.exit.thread.i.i
  %4 = phi ptr [ %17, %_ZNK4ofbx8DataVieweqEPKc.exit.thread.i.i ], [ %.144.val.32.val, %3 ]
  %5 = getelementptr inbounds i8, ptr %4, i64 8
  %6 = load ptr, ptr %5, align 8
  %7 = getelementptr inbounds i8, ptr %4, i64 16
  %8 = load ptr, ptr %7, align 8
  %.not1420.i.i.i = icmp eq ptr %6, %8
  br i1 %.not1420.i.i.i, label %_ZNK4ofbx8DataVieweqEPKc.exit.thread.i.i, label %.lr.ph.i.i.i

.lr.ph.i.i.i:                                     ; preds = %.lr.ph.split.i.i, %11
  %9 = phi i8 [ %14, %11 ], [ 80, %.lr.ph.split.i.i ]
  %.023.i.i.i = phi ptr [ %13, %11 ], [ %6, %.lr.ph.split.i.i ]
  %.01122.i.i.i = phi ptr [ %12, %11 ], [ @.str.4, %.lr.ph.split.i.i ]
  %10 = load i8, ptr %.023.i.i.i, align 1
  %.not15.i.i.i = icmp eq i8 %9, %10
  br i1 %.not15.i.i.i, label %11, label %_ZNK4ofbx8DataVieweqEPKc.exit.thread.i.i

11:                                               ; preds = %.lr.ph.i.i.i
  %12 = getelementptr inbounds i8, ptr %.01122.i.i.i, i64 1
  %13 = getelementptr inbounds i8, ptr %.023.i.i.i, i64 1
  %14 = load i8, ptr %12, align 1
  %.not.i.i.i = icmp eq i8 %14, 0
  %.not14.i.i.i = icmp eq ptr %13, %8
  %or.cond.i.i.i = select i1 %.not.i.i.i, i1 true, i1 %.not14.i.i.i
  br i1 %or.cond.i.i.i, label %_ZNK4ofbx8DataVieweqEPKc.exit.i.i, label %.lr.ph.i.i.i, !llvm.loop !5

_ZNK4ofbx8DataVieweqEPKc.exit.i.i:                ; preds = %11
  %15 = and i1 %.not14.i.i.i, %.not.i.i.i
  br i1 %15, label %_ZN4ofbxL9findChildERKNS_7ElementEPKc.exit.i, label %_ZNK4ofbx8DataVieweqEPKc.exit.thread.i.i

_ZNK4ofbx8DataVieweqEPKc.exit.thread.i.i:         ; preds = %.lr.ph.i.i.i, %_ZNK4ofbx8DataVieweqEPKc.exit.i.i, %.lr.ph.split.i.i
  %16 = getelementptr inbounds i8, ptr %4, i64 40
  %17 = load ptr, ptr %16, align 8
  %.not.i.i = icmp eq ptr %17, null
  br i1 %.not.i.i, label %.loopexit, label %.lr.ph.split.i.i, !llvm.loop !8

_ZN4ofbxL9findChildERKNS_7ElementEPKc.exit.i:     ; preds = %_ZNK4ofbx8DataVieweqEPKc.exit.i.i
  %18 = getelementptr inbounds i8, ptr %4, i64 32
  %.06.i = load ptr, ptr %18, align 8
  %.not137.i = icmp eq ptr %.06.i, null
  br i1 %.not137.i, label %.loopexit, label %.lr.ph.i

.lr.ph.i:                                         ; preds = %_ZN4ofbxL9findChildERKNS_7ElementEPKc.exit.i, %_ZNK4ofbx8DataVieweqEPKc.exit.thread.i
  %.08.i = phi ptr [ %.0.i, %_ZNK4ofbx8DataVieweqEPKc.exit.thread.i ], [ %.06.i, %_ZN4ofbxL9findChildERKNS_7ElementEPKc.exit.i ]
  %19 = getelementptr inbounds i8, ptr %.08.i, i64 48
  %20 = load ptr, ptr %19, align 8
  %.not14.i = icmp eq ptr %20, null
  br i1 %.not14.i, label %_ZNK4ofbx8DataVieweqEPKc.exit.thread.i, label %21

21:                                               ; preds = %.lr.ph.i
  %22 = getelementptr inbounds i8, ptr %20, i64 16
  %23 = load ptr, ptr %22, align 8
  %24 = getelementptr inbounds i8, ptr %20, i64 24
  %25 = load ptr, ptr %24, align 8
  %26 = load i8, ptr %1, align 1
  %.not19.i.i = icmp eq i8 %26, 0
  %.not1420.i.i = icmp eq ptr %23, %25
  %or.cond21.i.i = select i1 %.not19.i.i, i1 true, i1 %.not1420.i.i
  br i1 %or.cond21.i.i, label %_ZNK4ofbx8DataVieweqEPKc.exit.i, label %.lr.ph.i15.i

.lr.ph.i15.i:                                     ; preds = %21, %29
  %27 = phi i8 [ %32, %29 ], [ %26, %21 ]
  %.023.i.i = phi ptr [ %31, %29 ], [ %23, %21 ]
  %.01122.i.i = phi ptr [ %30, %29 ], [ %1, %21 ]
  %28 = load i8, ptr %.023.i.i, align 1
  %.not15.i.i = icmp eq i8 %27, %28
  br i1 %.not15.i.i, label %29, label %_ZNK4ofbx8DataVieweqEPKc.exit.thread.i

29:                                               ; preds = %.lr.ph.i15.i
  %30 = getelementptr inbounds i8, ptr %.01122.i.i, i64 1
  %31 = getelementptr inbounds i8, ptr %.023.i.i, i64 1
  %32 = load i8, ptr %30, align 1
  %.not.i16.i = icmp eq i8 %32, 0
  %.not14.i.i = icmp eq ptr %31, %25
  %or.cond.i.i = select i1 %.not.i16.i, i1 true, i1 %.not14.i.i
  br i1 %or.cond.i.i, label %_ZNK4ofbx8DataVieweqEPKc.exit.i, label %.lr.ph.i15.i, !llvm.loop !5

_ZNK4ofbx8DataVieweqEPKc.exit.i:                  ; preds = %29, %21
  %.not.lcssa.i.i = phi i1 [ %.not19.i.i, %21 ], [ %.not.i16.i, %29 ]
  %.not14.lcssa.i.i = phi i1 [ %.not1420.i.i, %21 ], [ %.not14.i.i, %29 ]
  %spec.select.i.i = and i1 %.not.lcssa.i.i, %.not14.lcssa.i.i
  br i1 %spec.select.i.i, label %.lr.ph.i17, label %_ZNK4ofbx8DataVieweqEPKc.exit.thread.i

_ZNK4ofbx8DataVieweqEPKc.exit.thread.i:           ; preds = %.lr.ph.i15.i, %_ZNK4ofbx8DataVieweqEPKc.exit.i, %.lr.ph.i
  %33 = getelementptr inbounds i8, ptr %.08.i, i64 40
  %.0.i = load ptr, ptr %33, align 8
  %.not13.i = icmp eq ptr %.0.i, null
  br i1 %.not13.i, label %.loopexit, label %.lr.ph.i, !llvm.loop !16

.loopexit:                                        ; preds = %_ZNK4ofbx8DataVieweqEPKc.exit.thread.i.i, %_ZNK4ofbx8DataVieweqEPKc.exit.thread.i, %3, %_ZN4ofbxL9findChildERKNS_7ElementEPKc.exit.i
  tail call void @llvm.memcpy.p0.p0.i64(ptr noundef nonnull align 8 dereferenceable(24) %0, ptr noundef nonnull align 8 dereferenceable(24) %2, i64 24, i1 false)
  br label %77

.lr.ph.i17:                                       ; preds = %_ZNK4ofbx8DataVieweqEPKc.exit.i, %35
  %.010.i18 = phi i32 [ %40, %35 ], [ 0, %_ZNK4ofbx8DataVieweqEPKc.exit.i ]
  %.079.i = phi ptr [ %39, %35 ], [ %20, %_ZNK4ofbx8DataVieweqEPKc.exit.i ]
  %34 = icmp eq ptr %.079.i, null
  br i1 %34, label %_ZNK4ofbx7Element11getPropertyEi.exit.thread, label %35

35:                                               ; preds = %.lr.ph.i17
  %36 = load ptr, ptr %.079.i, align 8
  %37 = getelementptr inbounds i8, ptr %36, i64 24
  %38 = load ptr, ptr %37, align 8
  %39 = tail call noundef ptr %38(ptr noundef nonnull align 8 dereferenceable(8) %.079.i)
  %40 = add nuw nsw i32 %.010.i18, 1
  %exitcond.not.i = icmp eq i32 %40, 4
  br i1 %exitcond.not.i, label %_ZNK4ofbx7Element11getPropertyEi.exit, label %.lr.ph.i17, !llvm.loop !17

_ZNK4ofbx7Element11getPropertyEi.exit:            ; preds = %35
  %.not14 = icmp eq ptr %39, null
  br i1 %.not14, label %_ZNK4ofbx7Element11getPropertyEi.exit.thread, label %41

41:                                               ; preds = %_ZNK4ofbx7Element11getPropertyEi.exit
  %42 = getelementptr inbounds i8, ptr %39, i64 40
  %43 = load ptr, ptr %42, align 8
  %.not15 = icmp eq ptr %43, null
  br i1 %.not15, label %_ZNK4ofbx7Element11getPropertyEi.exit.thread, label %44

44:                                               ; preds = %41
  %45 = getelementptr inbounds i8, ptr %43, i64 40
  %46 = load ptr, ptr %45, align 8
  %.not16 = icmp eq ptr %46, null
  br i1 %.not16, label %_ZNK4ofbx7Element11getPropertyEi.exit.thread, label %47

_ZNK4ofbx7Element11getPropertyEi.exit.thread:     ; preds = %.lr.ph.i17, %44, %41, %_ZNK4ofbx7Element11getPropertyEi.exit
  tail call void @llvm.memcpy.p0.p0.i64(ptr noundef nonnull align 8 dereferenceable(24) %0, ptr noundef nonnull align 8 dereferenceable(24) %2, i64 24, i1 false)
  br label %77

47:                                               ; preds = %44
  %48 = getelementptr inbounds i8, ptr %39, i64 16
  %49 = getelementptr inbounds i8, ptr %39, i64 32
  %50 = load i8, ptr %49, align 8
  %51 = and i8 %50, 1
  %.not.i = icmp eq i8 %51, 0
  %52 = load ptr, ptr %48, align 8
  br i1 %.not.i, label %55, label %53

53:                                               ; preds = %47
  %54 = load double, ptr %52, align 8
  br label %_ZNK4ofbx8DataView8toDoubleEv.exit

55:                                               ; preds = %47
  %56 = tail call double @atof(ptr noundef %52) #30
  br label %_ZNK4ofbx8DataView8toDoubleEv.exit

_ZNK4ofbx8DataView8toDoubleEv.exit:               ; preds = %53, %55
  %.0.i20 = phi double [ %54, %53 ], [ %56, %55 ]
  store double %.0.i20, ptr %0, align 8
  %57 = getelementptr inbounds i8, ptr %0, i64 8
  %58 = getelementptr inbounds i8, ptr %43, i64 16
  %59 = getelementptr inbounds i8, ptr %43, i64 32
  %60 = load i8, ptr %59, align 8
  %61 = and i8 %60, 1
  %.not.i21 = icmp eq i8 %61, 0
  %62 = load ptr, ptr %58, align 8
  br i1 %.not.i21, label %65, label %63

63:                                               ; preds = %_ZNK4ofbx8DataView8toDoubleEv.exit
  %64 = load double, ptr %62, align 8
  br label %_ZNK4ofbx8DataView8toDoubleEv.exit23

65:                                               ; preds = %_ZNK4ofbx8DataView8toDoubleEv.exit
  %66 = tail call double @atof(ptr noundef %62) #30
  br label %_ZNK4ofbx8DataView8toDoubleEv.exit23

_ZNK4ofbx8DataView8toDoubleEv.exit23:             ; preds = %63, %65
  %.0.i22 = phi double [ %64, %63 ], [ %66, %65 ]
  store double %.0.i22, ptr %57, align 8
  %67 = getelementptr inbounds i8, ptr %0, i64 16
  %68 = getelementptr inbounds i8, ptr %46, i64 16
  %69 = getelementptr inbounds i8, ptr %46, i64 32
  %70 = load i8, ptr %69, align 8
  %71 = and i8 %70, 1
  %.not.i24 = icmp eq i8 %71, 0
  %72 = load ptr, ptr %68, align 8
  br i1 %.not.i24, label %75, label %73

73:                                               ; preds = %_ZNK4ofbx8DataView8toDoubleEv.exit23
  %74 = load double, ptr %72, align 8
  br label %_ZNK4ofbx8DataView8toDoubleEv.exit26

75:                                               ; preds = %_ZNK4ofbx8DataView8toDoubleEv.exit23
  %76 = tail call double @atof(ptr noundef %72) #30
  br label %_ZNK4ofbx8DataView8toDoubleEv.exit26

_ZNK4ofbx8DataView8toDoubleEv.exit26:             ; preds = %73, %75
  %.0.i25 = phi double [ %74, %73 ], [ %76, %75 ]
  store double %.0.i25, ptr %67, align 8
  br label %77

77:                                               ; preds = %_ZNK4ofbx8DataView8toDoubleEv.exit26, %_ZNK4ofbx7Element11getPropertyEi.exit.thread, %.loopexit
  ret void
}